target datalayout = "e-m:e-p270:32:32-p271:32:32-p272:64:64-i64:64-i128:128-f80:128-n8:16:32:64-S128"
target triple = "x86_64-pc-linux-gnu"

%struct.engine_st = type { ptr, ptr, ptr, ptr, ptr, ptr, ptr, ptr, ptr, ptr, ptr, ptr, ptr, ptr, ptr, ptr, ptr, ptr, ptr, i32, %struct.CRYPTO_REF_COUNT, i32, %struct.crypto_ex_data_st, ptr, ptr, ptr, ptr, ptr }
%struct.CRYPTO_REF_COUNT = type { i32 }
%struct.crypto_ex_data_st = type { ptr, ptr }

@.str = private unnamed_addr constant [36 x i8] c"../openssl/crypto/engine/eng_ctrl.c\00", align 1
@__func__.ENGINE_ctrl_cmd = private unnamed_addr constant [16 x i8] c"ENGINE_ctrl_cmd\00", align 1

; Function Attrs: nounwind uwtable
define i32 @ENGINE_ctrl_cmd(ptr noundef %0, ptr noundef %1, i64 noundef %2, ptr noundef %3, ptr noundef %4, i32 noundef %5) #0 {
  %7 = alloca i32, align 4
  %8 = alloca ptr, align 8
  %9 = alloca ptr, align 8
  %10 = alloca i64, align 8
  %11 = alloca ptr, align 8
  %12 = alloca ptr, align 8
  %13 = alloca i32, align 4
  %14 = alloca i32, align 4
  %15 = alloca i32, align 4
  store ptr %0, ptr %8, align 8, !tbaa !3
  store ptr %1, ptr %9, align 8, !tbaa !27
  store i64 %2, ptr %10, align 8, !tbaa !10
  store ptr %3, ptr %11, align 8, !tbaa !12
  store ptr %4, ptr %12, align 8, !tbaa !12
  store i32 %5, ptr %13, align 4, !tbaa !8
  call void @llvm.lifetime.start.p0(i64 4, ptr %14) #5
  %16 = load ptr, ptr %8, align 8, !tbaa !3
  %17 = icmp eq ptr %16, null
  br i1 %17, label %21, label %18

18:                                               ; preds = %6
  %19 = load ptr, ptr %9, align 8, !tbaa !27
  %20 = icmp eq ptr %19, null
  br i1 %20, label %21, label %22

21:                                               ; preds = %18, %6
  call void @ERR_new()
  call void @ERR_set_debug(ptr noundef @.str, i32 noundef 197, ptr noundef @__func__.ENGINE_ctrl_cmd)
  call void (i32, i32, ptr, ...) @ERR_set_error(i32 noundef 38, i32 noundef 786690, ptr noundef null)
  store i32 0, ptr %7, align 4
  store i32 1, ptr %15, align 4
  br label %47

22:                                               ; preds = %18
  %23 = load ptr, ptr %8, align 8, !tbaa !3
  %24 = getelementptr inbounds nuw %struct.engine_st, ptr %23, i32 0, i32 14
  %25 = load ptr, ptr %24, align 8, !tbaa !13
  %26 = icmp eq ptr %25, null
  br i1 %26, label %32, label %27

27:                                               ; preds = %22
  %28 = load ptr, ptr %8, align 8, !tbaa !3
  %29 = load ptr, ptr %9, align 8, !tbaa !27
  %30 = call i32 @ENGINE_ctrl(ptr noundef %28, i32 noundef 13, i64 noundef 0, ptr noundef %29, ptr noundef null)
  store i32 %30, ptr %14, align 4, !tbaa !8
  %31 = icmp sle i32 %30, 0
  br i1 %31, label %32, label %37

32:                                               ; preds = %27, %22
  %33 = load i32, ptr %13, align 4, !tbaa !8
  %34 = icmp ne i32 %33, 0
  br i1 %34, label %35, label %36

35:                                               ; preds = %32
  call void @ERR_clear_error()
  store i32 1, ptr %7, align 4
  store i32 1, ptr %15, align 4
  br label %47

36:                                               ; preds = %32
  call void @ERR_new()
  call void @ERR_set_debug(ptr noundef @.str, i32 noundef 215, ptr noundef @__func__.ENGINE_ctrl_cmd)
  call void (i32, i32, ptr, ...) @ERR_set_error(i32 noundef 38, i32 noundef 137, ptr noundef null)
  store i32 0, ptr %7, align 4
  store i32 1, ptr %15, align 4
  br label %47

37:                                               ; preds = %27
  %38 = load ptr, ptr %8, align 8, !tbaa !3
  %39 = load i32, ptr %14, align 4, !tbaa !8
  %40 = load i64, ptr %10, align 8, !tbaa !10
  %41 = load ptr, ptr %11, align 8, !tbaa !12
  %42 = load ptr, ptr %12, align 8, !tbaa !12
  %43 = call i32 @ENGINE_ctrl(ptr noundef %38, i32 noundef %39, i64 noundef %40, ptr noundef %41, ptr noundef %42)
  %44 = icmp sgt i32 %43, 0
  br i1 %44, label %45, label %46

45:                                               ; preds = %37
  store i32 1, ptr %7, align 4
  store i32 1, ptr %15, align 4
  br label %47

46:                                               ; preds = %37
  store i32 0, ptr %7, align 4
  store i32 1, ptr %15, align 4
  br label %47

47:                                               ; preds = %46, %45, %36, %35, %21
  call void @llvm.lifetime.end.p0(i64 4, ptr %14) #5
  %48 = load i32, ptr %7, align 4
  ret i32 %48
}