; Function Attrs: nounwind uwtable
define range(i32 0, 2) i32 @ENGINE_ctrl_cmd(ptr noundef %0, ptr noundef %1, i64 noundef %2, ptr noundef %3, ptr noundef %4, i32 noundef %5) local_unnamed_addr #0 {
  %7 = icmp eq ptr %0, null
  %8 = icmp eq ptr %1, null
  %or.cond = or i1 %7, %8
  br i1 %or.cond, label %9, label %10

9:                                                ; preds = %6
  tail call void @ERR_new() #6
  tail call void @ERR_set_debug(ptr noundef nonnull @.str, i32 noundef 197, ptr noundef nonnull @__func__.ENGINE_ctrl_cmd) #6
  tail call void (i32, i32, ptr, ...) @ERR_set_error(i32 noundef 38, i32 noundef 786690, ptr noundef null) #6
  br label %23

10:                                               ; preds = %6
  %11 = getelementptr inbounds nuw i8, ptr %0, i64 112
  %12 = load ptr, ptr %11, align 8, !tbaa !3
  %13 = icmp eq ptr %12, null
  br i1 %13, label %17, label %14

14:                                               ; preds = %10
  %15 = tail call i32 @ENGINE_ctrl(ptr noundef nonnull %0, i32 noundef 13, i64 noundef 0, ptr noundef nonnull %1, ptr noundef null)
  %16 = icmp slt i32 %15, 1
  br i1 %16, label %17, label %20

17:                                               ; preds = %14, %10
  %.not = icmp eq i32 %5, 0
  br i1 %.not, label %19, label %18

18:                                               ; preds = %17
  tail call void @ERR_clear_error() #6
  br label %23

19:                                               ; preds = %17
  tail call void @ERR_new() #6
  tail call void @ERR_set_debug(ptr noundef nonnull @.str, i32 noundef 215, ptr noundef nonnull @__func__.ENGINE_ctrl_cmd) #6
  tail call void (i32, i32, ptr, ...) @ERR_set_error(i32 noundef 38, i32 noundef 137, ptr noundef null) #6
  br label %23

20:                                               ; preds = %14
  %21 = tail call i32 @ENGINE_ctrl(ptr noundef nonnull %0, i32 noundef %15, i64 noundef %2, ptr noundef %3, ptr noundef %4)
  %22 = icmp sgt i32 %21, 0
  %. = zext i1 %22 to i32
  br label %23

23:                                               ; preds = %20, %19, %18, %9
  %.0 = phi i32 [ 0, %9 ], [ 1, %18 ], [ 0, %19 ], [ %., %20 ]
  ret i32 %.0
}